; Function Attrs: nofree norecurse nounwind memory(argmem: readwrite) uwtable
define hidden zeroext i1 @_mi_bitmap_unclaim_across(ptr noundef captures(none) %0, i64 noundef %1, i64 noundef %2, i64 noundef %3) local_unnamed_addr #1 {
  %5 = lshr i64 %3, 6
  %6 = and i64 %3, 63
  %7 = add i64 %6, %2
  %8 = icmp ult i64 %7, 65
  br i1 %8, label %9, label %mi_bitmap_mask_.exit24.i, !prof !21

9:                                                ; preds = %4
  %10 = icmp ugt i64 %2, 63
  br i1 %10, label %._crit_edge.thread, label %11

11:                                               ; preds = %9
  %12 = icmp eq i64 %2, 0
  br i1 %12, label %._crit_edge.thread, label %13

13:                                               ; preds = %11
  %notmask.i.i = shl nsw i64 -1, %2
  %14 = xor i64 %notmask.i.i, -1
  %15 = shl i64 %14, %6
  br label %._crit_edge.thread

mi_bitmap_mask_.exit24.i:                         ; preds = %4
  %16 = sub nuw nsw i64 64, %6
  %17 = icmp eq i64 %6, 0
  %notmask.i22.i = shl nsw i64 -1, %16
  %18 = xor i64 %notmask.i22.i, -1
  %19 = shl i64 %18, %6
  %.0.i23.i = select i1 %17, i64 -1, i64 %19
  %20 = sub i64 %2, %16
  %21 = and i64 %20, 63
  %notmask.i25.i = shl nsw i64 -1, %21
  %22 = getelementptr inbounds nuw i64, ptr %0, i64 %5
  %23 = xor i64 %.0.i23.i, -1
  %24 = atomicrmw and ptr %22, i64 %23 acq_rel, align 8
  %25 = and i64 %24, %.0.i23.i
  %.not = icmp eq i64 %25, %.0.i23.i
  %.02035 = getelementptr inbounds nuw i8, ptr %22, i64 8
  %.not2236 = icmp ult i64 %20, 64
  br i1 %.not2236, label %._crit_edge, label %.lr.ph

._crit_edge.thread:                               ; preds = %9, %11, %13
  %.033.ph = phi i64 [ -1, %9 ], [ 0, %11 ], [ %15, %13 ]
  %26 = getelementptr inbounds nuw i64, ptr %0, i64 %5
  %27 = xor i64 %.033.ph, -1
  %28 = atomicrmw and ptr %26, i64 %27 acq_rel, align 8
  %29 = and i64 %28, %.033.ph
  %.not46 = icmp eq i64 %29, %.033.ph
  br label %37

.lr.ph:                                           ; preds = %mi_bitmap_mask_.exit24.i
  %30 = lshr i64 %20, 6
  br label %31

31:                                               ; preds = %.lr.ph, %31
  %.02039 = phi ptr [ %.02035, %.lr.ph ], [ %.020, %31 ]
  %.038 = phi i64 [ %30, %.lr.ph ], [ %32, %31 ]
  %.137 = phi i1 [ %.not, %.lr.ph ], [ %spec.select26, %31 ]
  %32 = add nsw i64 %.038, -1
  %33 = atomicrmw xchg ptr %.02039, i64 0 acq_rel, align 8
  %.not25 = icmp eq i64 %33, -1
  %spec.select26 = select i1 %.not25, i1 %.137, i1 false
  %.020 = getelementptr inbounds nuw i8, ptr %.02039, i64 8
  %.not22 = icmp eq i64 %32, 0
  br i1 %.not22, label %._crit_edge, label %31, !llvm.loop !22

._crit_edge:                                      ; preds = %31, %mi_bitmap_mask_.exit24.i
  %.1.lcssa = phi i1 [ %.not, %mi_bitmap_mask_.exit24.i ], [ %spec.select26, %31 ]
  %.020.lcssa = phi ptr [ %.02035, %mi_bitmap_mask_.exit24.i ], [ %.020, %31 ]
  %.not23 = icmp eq i64 %21, 0
  br i1 %.not23, label %37, label %34

34:                                               ; preds = %._crit_edge
  %35 = atomicrmw and ptr %.020.lcssa, i64 %notmask.i25.i acq_rel, align 8
  %36 = or i64 %35, %notmask.i25.i
  %.not24 = icmp eq i64 %36, -1
  %spec.select27 = select i1 %.not24, i1 %.1.lcssa, i1 false
  br label %37

37:                                               ; preds = %._crit_edge.thread, %34, %._crit_edge
  %.3 = phi i1 [ %.1.lcssa, %._crit_edge ], [ %spec.select27, %34 ], [ %.not46, %._crit_edge.thread ]
  ret i1 %.3
}